; Function Attrs: nounwind sspstrong uwtable
define internal void @gzfile_reader_end(ptr noundef %0) #0 {
  %2 = load i64, ptr %0, align 8, !tbaa !113
  %3 = and i64 %2, 8
  %.not = icmp eq i64 %3, 0
  br i1 %.not, label %4, label %8

4:                                                ; preds = %1
  %5 = or disjoint i64 %2, 8
  store i64 %5, ptr %0, align 8, !tbaa !113
  %6 = ptrtoint ptr %0 to i64
  %7 = tail call i64 @rb_ensure(ptr noundef nonnull @gzfile_reader_end_run, i64 noundef %6, ptr noundef nonnull @zstream_ensure_end, i64 noundef %6) #18
  br label %8

8:                                                ; preds = %1, %4
  ret void
}